target datalayout = "e-m:e-p270:32:32-p271:32:32-p272:64:64-i64:64-i128:128-f80:128-n8:16:32:64-S128"
target triple = "x86_64-pc-linux-gnu"

%struct.Abc_Obj_t_ = type { ptr, ptr, i32, i32, %struct.Vec_Int_t_, %struct.Vec_Int_t_, %union.anon, %union.anon.0 }
%struct.Vec_Int_t_ = type { i32, i32, ptr }
%union.anon = type { ptr }
%union.anon.0 = type { ptr }
%struct.Abc_Ntk_t_ = type { i32, i32, ptr, ptr, ptr, ptr, ptr, ptr, ptr, ptr, ptr, ptr, ptr, [11 x i32], i32, i32, i32, i32, ptr, i32, ptr, ptr, i32, i32, i32, double, i32, %struct.Vec_Int_t_, ptr, ptr, ptr, ptr, ptr, float, i32, ptr, ptr, ptr, ptr, ptr, ptr, ptr, ptr, ptr, ptr, ptr, ptr, ptr, ptr, ptr, ptr, ptr, ptr, ptr, ptr, ptr, ptr }
%struct.Vec_Ptr_t_ = type { i32, i32, ptr }

; Function Attrs: inlinehint nounwind uwtable
define internal ptr @Abc_ObjFanin(ptr noundef %0, i32 noundef %1) #3 {
  %3 = alloca ptr, align 8
  %4 = alloca i32, align 4
  store ptr %0, ptr %3, align 8, !tbaa !8
  store i32 %1, ptr %4, align 4, !tbaa !12
  %5 = load ptr, ptr %3, align 8, !tbaa !8
  %6 = getelementptr inbounds nuw %struct.Abc_Obj_t_, ptr %5, i32 0, i32 0
  %7 = load ptr, ptr %6, align 8, !tbaa !16
  %8 = getelementptr inbounds nuw %struct.Abc_Ntk_t_, ptr %7, i32 0, i32 5
  %9 = load ptr, ptr %8, align 8, !tbaa !41
  %10 = getelementptr inbounds nuw %struct.Vec_Ptr_t_, ptr %9, i32 0, i32 2
  %11 = load ptr, ptr %10, align 8, !tbaa !42
  %12 = load ptr, ptr %3, align 8, !tbaa !8
  %13 = getelementptr inbounds nuw %struct.Abc_Obj_t_, ptr %12, i32 0, i32 4
  %14 = getelementptr inbounds nuw %struct.Vec_Int_t_, ptr %13, i32 0, i32 2
  %15 = load ptr, ptr %14, align 8, !tbaa !37
  %16 = load i32, ptr %4, align 4, !tbaa !12
  %17 = sext i32 %16 to i64
  %18 = getelementptr inbounds i32, ptr %15, i64 %17
  %19 = load i32, ptr %18, align 4, !tbaa !12
  %20 = sext i32 %19 to i64
  %21 = getelementptr inbounds ptr, ptr %11, i64 %20
  %22 = load ptr, ptr %21, align 8, !tbaa !44
  ret ptr %22
}

; Function Attrs: inlinehint nounwind uwtable
define internal i32 @Abc_ObjFaninNum(ptr noundef %0) #3 {
  %2 = alloca ptr, align 8
  store ptr %0, ptr %2, align 8, !tbaa !8
  %3 = load ptr, ptr %2, align 8, !tbaa !8
  %4 = getelementptr inbounds nuw %struct.Abc_Obj_t_, ptr %3, i32 0, i32 4
  %5 = getelementptr inbounds nuw %struct.Vec_Int_t_, ptr %4, i32 0, i32 1
  %6 = load i32, ptr %5, align 4, !tbaa !40
  ret i32 %6
}

; Function Attrs: nounwind uwtable
define void @Abc_NodeBddReorder(ptr noundef %0, ptr noundef %1) #0 {
  %3 = alloca ptr, align 8
  %4 = alloca ptr, align 8
  %5 = alloca ptr, align 8
  %6 = alloca ptr, align 8
  %7 = alloca ptr, align 8
  %8 = alloca i32, align 4
  store ptr %0, ptr %3, align 8, !tbaa !3
  store ptr %1, ptr %4, align 8, !tbaa !8
  call void @llvm.lifetime.start.p0(i64 8, ptr %5) #6
  call void @llvm.lifetime.start.p0(i64 8, ptr %6) #6
  call void @llvm.lifetime.start.p0(i64 8, ptr %7) #6
  call void @llvm.lifetime.start.p0(i64 4, ptr %8) #6
  %9 = load ptr, ptr %4, align 8, !tbaa !8
  %10 = call i32 @Abc_ObjFaninNum(ptr noundef %9)
  %11 = sext i32 %10 to i64
  %12 = mul i64 4, %11
  %13 = call noalias ptr @malloc(i64 noundef %12) #7
  store ptr %13, ptr %7, align 8, !tbaa !10
  store i32 0, ptr %8, align 4, !tbaa !12
  br label %14

14:                                               ; preds = %24, %2
  %15 = load i32, ptr %8, align 4, !tbaa !12
  %16 = load ptr, ptr %4, align 8, !tbaa !8
  %17 = call i32 @Abc_ObjFaninNum(ptr noundef %16)
  %18 = icmp slt i32 %15, %17
  br i1 %18, label %19, label %27

19:                                               ; preds = %14
  %20 = load ptr, ptr %7, align 8, !tbaa !10
  %21 = load i32, ptr %8, align 4, !tbaa !12
  %22 = sext i32 %21 to i64
  %23 = getelementptr inbounds i32, ptr %20, i64 %22
  store i32 -1, ptr %23, align 4, !tbaa !12
  br label %24

24:                                               ; preds = %19
  %25 = load i32, ptr %8, align 4, !tbaa !12
  %26 = add nsw i32 %25, 1
  store i32 %26, ptr %8, align 4, !tbaa !12
  br label %14, !llvm.loop !14

27:                                               ; preds = %14
  %28 = load ptr, ptr %3, align 8, !tbaa !3
  %29 = load ptr, ptr %4, align 8, !tbaa !8
  %30 = getelementptr inbounds nuw %struct.Abc_Obj_t_, ptr %29, i32 0, i32 0
  %31 = load ptr, ptr %30, align 8, !tbaa !16
  %32 = getelementptr inbounds nuw %struct.Abc_Ntk_t_, ptr %31, i32 0, i32 30
  %33 = load ptr, ptr %32, align 8, !tbaa !20
  %34 = load ptr, ptr %4, align 8, !tbaa !8
  %35 = getelementptr inbounds nuw %struct.Abc_Obj_t_, ptr %34, i32 0, i32 6
  %36 = load ptr, ptr %35, align 8, !tbaa !34
  %37 = load ptr, ptr %7, align 8, !tbaa !10
  %38 = call ptr @Extra_Reorder(ptr noundef %28, ptr noundef %33, ptr noundef %36, ptr noundef %37)
  store ptr %38, ptr %6, align 8, !tbaa !35
  %39 = load ptr, ptr %6, align 8, !tbaa !35
  call void @Cudd_Ref(ptr noundef %39)
  %40 = load ptr, ptr %4, align 8, !tbaa !8
  %41 = getelementptr inbounds nuw %struct.Abc_Obj_t_, ptr %40, i32 0, i32 0
  %42 = load ptr, ptr %41, align 8, !tbaa !16
  %43 = getelementptr inbounds nuw %struct.Abc_Ntk_t_, ptr %42, i32 0, i32 30
  %44 = load ptr, ptr %43, align 8, !tbaa !20
  %45 = load ptr, ptr %4, align 8, !tbaa !8
  %46 = getelementptr inbounds nuw %struct.Abc_Obj_t_, ptr %45, i32 0, i32 6
  %47 = load ptr, ptr %46, align 8, !tbaa !34
  call void @Cudd_RecursiveDeref(ptr noundef %44, ptr noundef %47)
  %48 = load ptr, ptr %6, align 8, !tbaa !35
  %49 = load ptr, ptr %4, align 8, !tbaa !8
  %50 = getelementptr inbounds nuw %struct.Abc_Obj_t_, ptr %49, i32 0, i32 6
  store ptr %48, ptr %50, align 8, !tbaa !34
  store i32 0, ptr %8, align 4, !tbaa !12
  br label %51

51:                                               ; preds = %79, %27
  %52 = load i32, ptr %8, align 4, !tbaa !12
  %53 = load ptr, ptr %4, align 8, !tbaa !8
  %54 = call i32 @Abc_ObjFaninNum(ptr noundef %53)
  %55 = icmp slt i32 %52, %54
  br i1 %55, label %56, label %60

56:                                               ; preds = %51
  %57 = load ptr, ptr %4, align 8, !tbaa !8
  %58 = load i32, ptr %8, align 4, !tbaa !12
  %59 = call ptr @Abc_ObjFanin(ptr noundef %57, i32 noundef %58)
  store ptr %59, ptr %5, align 8, !tbaa !8
  br label %60

60:                                               ; preds = %56, %51
  %61 = phi i1 [ false, %51 ], [ true, %56 ]
  br i1 %61, label %62, label %82

62:                                               ; preds = %60
  %63 = load ptr, ptr %4, align 8, !tbaa !8
  %64 = getelementptr inbounds nuw %struct.Abc_Obj_t_, ptr %63, i32 0, i32 4
  %65 = getelementptr inbounds nuw %struct.Vec_Int_t_, ptr %64, i32 0, i32 2
  %66 = load ptr, ptr %65, align 8, !tbaa !37
  %67 = load ptr, ptr %7, align 8, !tbaa !10
  %68 = load i32, ptr %8, align 4, !tbaa !12
  %69 = sext i32 %68 to i64
  %70 = getelementptr inbounds i32, ptr %67, i64 %69
  %71 = load i32, ptr %70, align 4, !tbaa !12
  %72 = sext i32 %71 to i64
  %73 = getelementptr inbounds i32, ptr %66, i64 %72
  %74 = load i32, ptr %73, align 4, !tbaa !12
  %75 = load ptr, ptr %7, align 8, !tbaa !10
  %76 = load i32, ptr %8, align 4, !tbaa !12
  %77 = sext i32 %76 to i64
  %78 = getelementptr inbounds i32, ptr %75, i64 %77
  store i32 %74, ptr %78, align 4, !tbaa !12
  br label %79

79:                                               ; preds = %62
  %80 = load i32, ptr %8, align 4, !tbaa !12
  %81 = add nsw i32 %80, 1
  store i32 %81, ptr %8, align 4, !tbaa !12
  br label %51, !llvm.loop !38

82:                                               ; preds = %60
  store i32 0, ptr %8, align 4, !tbaa !12
  br label %83

83:                                               ; preds = %107, %82
  %84 = load i32, ptr %8, align 4, !tbaa !12
  %85 = load ptr, ptr %4, align 8, !tbaa !8
  %86 = call i32 @Abc_ObjFaninNum(ptr noundef %85)
  %87 = icmp slt i32 %84, %86
  br i1 %87, label %88, label %92

88:                                               ; preds = %83
  %89 = load ptr, ptr %4, align 8, !tbaa !8
  %90 = load i32, ptr %8, align 4, !tbaa !12
  %91 = call ptr @Abc_ObjFanin(ptr noundef %89, i32 noundef %90)
  store ptr %91, ptr %5, align 8, !tbaa !8
  br label %92

92:                                               ; preds = %88, %83
  %93 = phi i1 [ false, %83 ], [ true, %88 ]
  br i1 %93, label %94, label %110

94:                                               ; preds = %92
  %95 = load ptr, ptr %7, align 8, !tbaa !10
  %96 = load i32, ptr %8, align 4, !tbaa !12
  %97 = sext i32 %96 to i64
  %98 = getelementptr inbounds i32, ptr %95, i64 %97
  %99 = load i32, ptr %98, align 4, !tbaa !12
  %100 = load ptr, ptr %4, align 8, !tbaa !8
  %101 = getelementptr inbounds nuw %struct.Abc_Obj_t_, ptr %100, i32 0, i32 4
  %102 = getelementptr inbounds nuw %struct.Vec_Int_t_, ptr %101, i32 0, i32 2
  %103 = load ptr, ptr %102, align 8, !tbaa !37
  %104 = load i32, ptr %8, align 4, !tbaa !12
  %105 = sext i32 %104 to i64
  %106 = getelementptr inbounds i32, ptr %103, i64 %105
  store i32 %99, ptr %106, align 4, !tbaa !12
  br label %107

107:                                              ; preds = %94
  %108 = load i32, ptr %8, align 4, !tbaa !12
  %109 = add nsw i32 %108, 1
  store i32 %109, ptr %8, align 4, !tbaa !12
  br label %83, !llvm.loop !39

110:                                              ; preds = %92
  %111 = load ptr, ptr %7, align 8, !tbaa !10
  %112 = icmp ne ptr %111, null
  br i1 %112, label %113, label %115

113:                                              ; preds = %110
  %114 = load ptr, ptr %7, align 8, !tbaa !10
  call void @free(ptr noundef %114) #6
  store ptr null, ptr %7, align 8, !tbaa !10
  br label %116

115:                                              ; preds = %110
  br label %116

116:                                              ; preds = %115, %113
  call void @llvm.lifetime.end.p0(i64 4, ptr %8) #6
  call void @llvm.lifetime.end.p0(i64 8, ptr %7) #6
  call void @llvm.lifetime.end.p0(i64 8, ptr %6) #6
  call void @llvm.lifetime.end.p0(i64 8, ptr %5) #6
  ret void
}