; Function Attrs: nounwind uwtable
define void @Abc_NodeBddReorder(ptr noundef %0, ptr noundef captures(none) %1) local_unnamed_addr #0 {
  %3 = getelementptr i8, ptr %1, i64 28
  %.val = load i32, ptr %3, align 4, !tbaa !3
  %4 = sext i32 %.val to i64
  %5 = shl nsw i64 %4, 2
  %6 = tail call noalias ptr @malloc(i64 noundef %5) #6
  %7 = icmp sgt i32 %.val, 0
  br i1 %7, label %.lr.ph.preheader, label %._crit_edge

.lr.ph.preheader:                                 ; preds = %2
  %8 = zext nneg i32 %.val to i64
  %9 = shl nuw nsw i64 %8, 2
  tail call void @llvm.memset.p0.i64(ptr align 4 %6, i8 -1, i64 %9, i1 false), !tbaa !13
  br label %._crit_edge

._crit_edge:                                      ; preds = %.lr.ph.preheader, %2
  %10 = load ptr, ptr %1, align 8, !tbaa !14
  %11 = getelementptr inbounds nuw i8, ptr %10, i64 256
  %12 = load ptr, ptr %11, align 8, !tbaa !15
  %13 = getelementptr inbounds nuw i8, ptr %1, i64 56
  %14 = load ptr, ptr %13, align 8, !tbaa !29
  %15 = tail call ptr @Extra_Reorder(ptr noundef %0, ptr noundef %12, ptr noundef %14, ptr noundef %6) #7
  tail call void @Cudd_Ref(ptr noundef %15) #7
  %16 = load ptr, ptr %1, align 8, !tbaa !14
  %17 = getelementptr inbounds nuw i8, ptr %16, i64 256
  %18 = load ptr, ptr %17, align 8, !tbaa !15
  %19 = load ptr, ptr %13, align 8, !tbaa !29
  tail call void @Cudd_RecursiveDeref(ptr noundef %18, ptr noundef %19) #7
  store ptr %15, ptr %13, align 8, !tbaa !29
  %.val39 = load i32, ptr %3, align 4, !tbaa !3
  %20 = icmp sgt i32 %.val39, 0
  br i1 %20, label %.lr.ph48, label %.critedge2

.lr.ph48:                                         ; preds = %._crit_edge
  %21 = getelementptr i8, ptr %1, i64 32
  %.val42 = load ptr, ptr %21, align 8, !tbaa !30
  %wide.trip.count = zext nneg i32 %.val39 to i64
  br label %23

.lr.ph51:                                         ; preds = %23
  %22 = getelementptr i8, ptr %1, i64 32
  %.val44 = load ptr, ptr %22, align 8, !tbaa !30
  br label %.critedge

23:                                               ; preds = %.lr.ph48, %23
  %indvars.iv = phi i64 [ 0, %.lr.ph48 ], [ %indvars.iv.next, %23 ]
  %24 = getelementptr inbounds nuw i32, ptr %6, i64 %indvars.iv
  %25 = load i32, ptr %24, align 4, !tbaa !13
  %26 = sext i32 %25 to i64
  %27 = getelementptr inbounds i32, ptr %.val42, i64 %26
  %28 = load i32, ptr %27, align 4, !tbaa !13
  store i32 %28, ptr %24, align 4, !tbaa !13
  %indvars.iv.next = add nuw nsw i64 %indvars.iv, 1
  %exitcond.not = icmp eq i64 %indvars.iv.next, %wide.trip.count
  br i1 %exitcond.not, label %.lr.ph51, label %23, !llvm.loop !31

.critedge:                                        ; preds = %.lr.ph51, %.critedge
  %indvars.iv54 = phi i64 [ 0, %.lr.ph51 ], [ %indvars.iv.next55, %.critedge ]
  %29 = getelementptr inbounds nuw i32, ptr %6, i64 %indvars.iv54
  %30 = load i32, ptr %29, align 4, !tbaa !13
  %31 = getelementptr inbounds nuw i32, ptr %.val44, i64 %indvars.iv54
  store i32 %30, ptr %31, align 4, !tbaa !13
  %indvars.iv.next55 = add nuw nsw i64 %indvars.iv54, 1
  %.val40 = load i32, ptr %3, align 4, !tbaa !3
  %32 = sext i32 %.val40 to i64
  %33 = icmp slt i64 %indvars.iv.next55, %32
  br i1 %33, label %.critedge, label %.critedge2.thread, !llvm.loop !33

.critedge2:                                       ; preds = %._crit_edge
  %.not = icmp eq ptr %6, null
  br i1 %.not, label %34, label %.critedge2.thread

.critedge2.thread:                                ; preds = %.critedge, %.critedge2
  tail call void @free(ptr noundef nonnull %6) #7
  br label %34

34:                                               ; preds = %.critedge2, %.critedge2.thread
  ret void
}